; Function Attrs: mustprogress uwtable
define hidden void @_ZN6google8protobuf8compiler4java17ClassNameResolver16GetFileClassNameB5cxx11EPKNS0_14FileDescriptorEbb(ptr noalias sret(%"class.std::__cxx11::basic_string") align 8 %agg.result, ptr noundef nonnull align 8 dereferenceable(112) %this, ptr noundef %file, i1 noundef zeroext %immutable, i1 noundef zeroext %kotlin) local_unnamed_addr #3 align 2 personality ptr @__gxx_personality_v0 {
entry:
  %ref.tmp = alloca %"class.absl::lts_20230802::AlphaNum", align 8
  %ref.tmp3 = alloca %"class.std::__cxx11::basic_string", align 8
  %ref.tmp4 = alloca %"class.absl::lts_20230802::AlphaNum", align 8
  %ref.tmp10 = alloca %"class.absl::lts_20230802::AlphaNum", align 8
  %ref.tmp11 = alloca %"class.absl::lts_20230802::AlphaNum", align 8
  %ref.tmp12 = alloca %"class.std::__cxx11::basic_string", align 8
  br i1 %kotlin, label %invoke.cont5, label %if.else

invoke.cont5:                                     ; preds = %entry
  call void @_ZN6google8protobuf8compiler4java17ClassNameResolver25GetFileImmutableClassNameB5cxx11EPKNS0_14FileDescriptorE(ptr nonnull sret(%"class.std::__cxx11::basic_string") align 8 %ref.tmp3, ptr noundef nonnull align 8 dereferenceable(112) %this, ptr noundef %file)
  %call.i = call { i64, ptr } @_ZNKSt7__cxx1112basic_stringIcSt11char_traitsIcESaIcEEcvSt17basic_string_viewIcS2_EEv(ptr noundef nonnull align 8 dereferenceable(32) %ref.tmp3) #18
  %0 = extractvalue { i64, ptr } %call.i, 0
  store i64 %0, ptr %ref.tmp, align 8
  %1 = getelementptr inbounds nuw i8, ptr %ref.tmp, i64 8
  %2 = extractvalue { i64, ptr } %call.i, 1
  store ptr %2, ptr %1, align 8
  store i64 2, ptr %ref.tmp4, align 8
  %3 = getelementptr inbounds nuw i8, ptr %ref.tmp4, i64 8
  store ptr @.str, ptr %3, align 8
  invoke void @_ZN4absl12lts_202308026StrCatB5cxx11ERKNS0_8AlphaNumES3_(ptr sret(%"class.std::__cxx11::basic_string") align 8 %agg.result, ptr noundef nonnull align 8 dereferenceable(48) %ref.tmp, ptr noundef nonnull align 8 dereferenceable(48) %ref.tmp4)
          to label %invoke.cont6 unwind label %lpad

invoke.cont6:                                     ; preds = %invoke.cont5
  call void @_ZNSt7__cxx1112basic_stringIcSt11char_traitsIcESaIcEED1Ev(ptr noundef nonnull align 8 dereferenceable(32) %ref.tmp3) #18
  br label %return

lpad:                                             ; preds = %invoke.cont5
  %4 = landingpad { ptr, i32 }
          cleanup
  br label %eh.resume

if.else:                                          ; preds = %entry
  br i1 %immutable, label %if.then8, label %if.else9

if.then8:                                         ; preds = %if.else
  tail call void @_ZN6google8protobuf8compiler4java17ClassNameResolver25GetFileImmutableClassNameB5cxx11EPKNS0_14FileDescriptorE(ptr sret(%"class.std::__cxx11::basic_string") align 8 %agg.result, ptr noundef nonnull align 8 dereferenceable(112) %this, ptr noundef %file)
  br label %return

if.else9:                                         ; preds = %if.else
  store i64 7, ptr %ref.tmp10, align 8
  %5 = getelementptr inbounds nuw i8, ptr %ref.tmp10, i64 8
  store ptr @.str.1, ptr %5, align 8
  call void @_ZN6google8protobuf8compiler4java17ClassNameResolver25GetFileImmutableClassNameB5cxx11EPKNS0_14FileDescriptorE(ptr nonnull sret(%"class.std::__cxx11::basic_string") align 8 %ref.tmp12, ptr noundef nonnull align 8 dereferenceable(112) %this, ptr noundef %file)
  %call.i5 = call { i64, ptr } @_ZNKSt7__cxx1112basic_stringIcSt11char_traitsIcESaIcEEcvSt17basic_string_viewIcS2_EEv(ptr noundef nonnull align 8 dereferenceable(32) %ref.tmp12) #18
  %6 = extractvalue { i64, ptr } %call.i5, 0
  store i64 %6, ptr %ref.tmp11, align 8
  %7 = getelementptr inbounds nuw i8, ptr %ref.tmp11, i64 8
  %8 = extractvalue { i64, ptr } %call.i5, 1
  store ptr %8, ptr %7, align 8
  invoke void @_ZN4absl12lts_202308026StrCatB5cxx11ERKNS0_8AlphaNumES3_(ptr sret(%"class.std::__cxx11::basic_string") align 8 %agg.result, ptr noundef nonnull align 8 dereferenceable(48) %ref.tmp10, ptr noundef nonnull align 8 dereferenceable(48) %ref.tmp11)
          to label %invoke.cont15 unwind label %lpad13

invoke.cont15:                                    ; preds = %if.else9
  call void @_ZNSt7__cxx1112basic_stringIcSt11char_traitsIcESaIcEED1Ev(ptr noundef nonnull align 8 dereferenceable(32) %ref.tmp12) #18
  br label %return

lpad13:                                           ; preds = %if.else9
  %9 = landingpad { ptr, i32 }
          cleanup
  br label %eh.resume

return:                                           ; preds = %invoke.cont15, %if.then8, %invoke.cont6
  ret void

eh.resume:                                        ; preds = %lpad13, %lpad
  %ref.tmp12.sink = phi ptr [ %ref.tmp12, %lpad13 ], [ %ref.tmp3, %lpad ]
  %.pn = phi { ptr, i32 } [ %9, %lpad13 ], [ %4, %lpad ]
  call void @_ZNSt7__cxx1112basic_stringIcSt11char_traitsIcESaIcEED1Ev(ptr noundef nonnull align 8 dereferenceable(32) %ref.tmp12.sink) #18
  resume { ptr, i32 } %.pn
}